; Function Attrs: mustprogress nofree norecurse nosync nounwind willreturn memory(read, inaccessiblemem: none) uwtable
define dso_local noundef zeroext i1 @_ZN4llvm10AArch64_MC19isExynosLogicExFastERKNS_6MCInstE(ptr noundef nonnull readonly align 8 captures(none) dereferenceable(128) %0) local_unnamed_addr #0 {
  %2 = load i32, ptr %0, align 8
  switch i32 %2, label %13 [
    i32 1551, label %3
    i32 1553, label %3
    i32 1542, label %3
    i32 1544, label %3
    i32 1751, label %3
    i32 1752, label %3
    i32 1748, label %3
    i32 1749, label %3
    i32 2303, label %3
    i32 2304, label %3
    i32 2325, label %3
    i32 2327, label %3
    i32 4864, label %3
    i32 4865, label %3
    i32 4875, label %3
    i32 4877, label %3
    i32 331, label %_ZN4llvm10AArch64_AML12getShiftTypeEj.exit10.thread
    i32 332, label %_ZN4llvm10AArch64_AML12getShiftTypeEj.exit10.thread
    i32 329, label %_ZN4llvm10AArch64_AML12getShiftTypeEj.exit10.thread
    i32 330, label %_ZN4llvm10AArch64_AML12getShiftTypeEj.exit10.thread
    i32 423, label %_ZN4llvm10AArch64_AML12getShiftTypeEj.exit10.thread
    i32 424, label %_ZN4llvm10AArch64_AML12getShiftTypeEj.exit10.thread
    i32 421, label %_ZN4llvm10AArch64_AML12getShiftTypeEj.exit10.thread
    i32 422, label %_ZN4llvm10AArch64_AML12getShiftTypeEj.exit10.thread
    i32 473, label %_ZN4llvm10AArch64_AML12getShiftTypeEj.exit10.thread
    i32 474, label %_ZN4llvm10AArch64_AML12getShiftTypeEj.exit10.thread
    i32 475, label %_ZN4llvm10AArch64_AML12getShiftTypeEj.exit10.thread
    i32 476, label %_ZN4llvm10AArch64_AML12getShiftTypeEj.exit10.thread
    i32 994, label %_ZN4llvm10AArch64_AML12getShiftTypeEj.exit10.thread
    i32 995, label %_ZN4llvm10AArch64_AML12getShiftTypeEj.exit10.thread
    i32 996, label %_ZN4llvm10AArch64_AML12getShiftTypeEj.exit10.thread
    i32 997, label %_ZN4llvm10AArch64_AML12getShiftTypeEj.exit10.thread
    i32 1550, label %_ZN4llvm10AArch64_AML12getShiftTypeEj.exit10.thread
    i32 1552, label %_ZN4llvm10AArch64_AML12getShiftTypeEj.exit10.thread
    i32 2324, label %_ZN4llvm10AArch64_AML12getShiftTypeEj.exit10.thread
    i32 2326, label %_ZN4llvm10AArch64_AML12getShiftTypeEj.exit10.thread
    i32 4874, label %_ZN4llvm10AArch64_AML12getShiftTypeEj.exit10.thread
    i32 4876, label %_ZN4llvm10AArch64_AML12getShiftTypeEj.exit10.thread
  ]

3:                                                ; preds = %1, %1, %1, %1, %1, %1, %1, %1, %1, %1, %1, %1, %1, %1, %1, %1
  %4 = getelementptr inbounds nuw i8, ptr %0, i64 16
  %5 = load ptr, ptr %4, align 8
  %6 = getelementptr inbounds nuw i8, ptr %5, i64 56
  %7 = load i64, ptr %6, align 8
  %8 = trunc i64 %7 to i32
  %9 = and i32 %8, 63
  %10 = icmp eq i32 %9, 0
  br i1 %10, label %_ZN4llvm10AArch64_AML12getShiftTypeEj.exit10.thread, label %11

11:                                               ; preds = %3
  %12 = and i32 %8, 448
  %cond = icmp eq i32 %12, 0
  br i1 %cond, label %switch.lookup, label %_ZN4llvm10AArch64_AML12getShiftTypeEj.exit10.thread

13:                                               ; preds = %1
  br label %_ZN4llvm10AArch64_AML12getShiftTypeEj.exit10.thread

switch.lookup:                                    ; preds = %11
  %switch.cast = and i64 %7, 63
  %switch.downshift = lshr i64 270, %switch.cast
  %switch.masked = trunc i64 %switch.downshift to i1
  br label %_ZN4llvm10AArch64_AML12getShiftTypeEj.exit10.thread

_ZN4llvm10AArch64_AML12getShiftTypeEj.exit10.thread: ; preds = %switch.lookup, %11, %1, %1, %1, %1, %1, %1, %1, %1, %1, %1, %1, %1, %1, %1, %1, %1, %1, %1, %1, %1, %1, %1, %3, %13
  %.0 = phi i1 [ false, %13 ], [ true, %3 ], [ true, %1 ], [ true, %1 ], [ true, %1 ], [ true, %1 ], [ true, %1 ], [ true, %1 ], [ true, %1 ], [ true, %1 ], [ true, %1 ], [ true, %1 ], [ true, %1 ], [ true, %1 ], [ true, %1 ], [ true, %1 ], [ true, %1 ], [ true, %1 ], [ true, %1 ], [ true, %1 ], [ true, %1 ], [ true, %1 ], [ true, %1 ], [ true, %1 ], [ false, %11 ], [ %switch.masked, %switch.lookup ]
  ret i1 %.0
}